target datalayout = "e-m:e-p270:32:32-p271:32:32-p272:64:64-i64:64-i128:128-f80:128-n8:16:32:64-S128"
target triple = "x86_64-pc-linux-gnu"

%struct.AVProbeData = type { ptr, ptr, i32, ptr }

; Function Attrs: alwaysinline nounwind willreturn memory(none) uwtable
define internal i32 @av_bswap32(i32 noundef %0) #2 {
  %2 = alloca i32, align 4
  store i32 %0, ptr %2, align 4, !tbaa !45
  %3 = load i32, ptr %2, align 4, !tbaa !45
  %4 = shl i32 %3, 8
  %5 = and i32 %4, 65280
  %6 = load i32, ptr %2, align 4, !tbaa !45
  %7 = lshr i32 %6, 8
  %8 = and i32 %7, 255
  %9 = or i32 %5, %8
  %10 = shl i32 %9, 16
  %11 = load i32, ptr %2, align 4, !tbaa !45
  %12 = lshr i32 %11, 16
  %13 = shl i32 %12, 8
  %14 = and i32 %13, 65280
  %15 = load i32, ptr %2, align 4, !tbaa !45
  %16 = lshr i32 %15, 16
  %17 = lshr i32 %16, 8
  %18 = and i32 %17, 255
  %19 = or i32 %14, %18
  %20 = or i32 %10, %19
  ret i32 %20
}

; Function Attrs: nounwind uwtable
define internal i32 @sox_probe(ptr noundef %0) #0 {
  %2 = alloca i32, align 4
  %3 = alloca ptr, align 8
  store ptr %0, ptr %3, align 8, !tbaa !4
  %4 = load ptr, ptr %3, align 8, !tbaa !4
  %5 = getelementptr inbounds nuw %struct.AVProbeData, ptr %4, i32 0, i32 1
  %6 = load ptr, ptr %5, align 8, !tbaa !9
  %7 = load i32, ptr %6, align 1, !tbaa !13
  %8 = icmp ne i32 %7, 1483690798
  br i1 %8, label %9, label %17

9:                                                ; preds = %1
  %10 = load ptr, ptr %3, align 8, !tbaa !4
  %11 = getelementptr inbounds nuw %struct.AVProbeData, ptr %10, i32 0, i32 1
  %12 = load ptr, ptr %11, align 8, !tbaa !9
  %13 = load i32, ptr %12, align 1, !tbaa !13
  %14 = call i32 @av_bswap32(i32 noundef %13) #6
  %15 = icmp ne i32 %14, 1483690798
  br i1 %15, label %16, label %17

16:                                               ; preds = %9
  store i32 0, ptr %2, align 4
  br label %34

17:                                               ; preds = %9, %1
  %18 = load ptr, ptr %3, align 8, !tbaa !4
  %19 = getelementptr inbounds nuw %struct.AVProbeData, ptr %18, i32 0, i32 1
  %20 = load ptr, ptr %19, align 8, !tbaa !9
  %21 = getelementptr inbounds i8, ptr %20, i64 4
  %22 = load i32, ptr %21, align 1, !tbaa !13
  %23 = icmp eq i32 %22, 0
  br i1 %23, label %24, label %25

24:                                               ; preds = %17
  store i32 0, ptr %2, align 4
  br label %34

25:                                               ; preds = %17
  %26 = load ptr, ptr %3, align 8, !tbaa !4
  %27 = getelementptr inbounds nuw %struct.AVProbeData, ptr %26, i32 0, i32 1
  %28 = load ptr, ptr %27, align 8, !tbaa !9
  %29 = getelementptr inbounds i8, ptr %28, i64 24
  %30 = load i32, ptr %29, align 1, !tbaa !13
  %31 = icmp eq i32 %30, 0
  br i1 %31, label %32, label %33

32:                                               ; preds = %25
  store i32 0, ptr %2, align 4
  br label %34

33:                                               ; preds = %25
  store i32 100, ptr %2, align 4
  br label %34

34:                                               ; preds = %33, %32, %24, %16
  %35 = load i32, ptr %2, align 4
  ret i32 %35
}