; Function Attrs: mustprogress nofree norecurse nosync nounwind willreturn memory(read, inaccessiblemem: none) uwtable
define internal range(i32 0, 101) i32 @sox_probe(ptr noundef readonly captures(none) %0) #0 {
  %2 = getelementptr inbounds nuw i8, ptr %0, i64 8
  %3 = load ptr, ptr %2, align 8, !tbaa !4
  %4 = load i32, ptr %3, align 1, !tbaa !11
  switch i32 %4, label %13 [
    i32 1483690798, label %5
    i32 777219928, label %5
  ]

5:                                                ; preds = %1, %1
  %6 = getelementptr inbounds nuw i8, ptr %3, i64 4
  %7 = load i32, ptr %6, align 1, !tbaa !11
  %8 = icmp eq i32 %7, 0
  br i1 %8, label %13, label %9

9:                                                ; preds = %5
  %10 = getelementptr inbounds nuw i8, ptr %3, i64 24
  %11 = load i32, ptr %10, align 1, !tbaa !11
  %12 = icmp eq i32 %11, 0
  %. = select i1 %12, i32 0, i32 100
  br label %13

13:                                               ; preds = %1, %9, %5
  %.0 = phi i32 [ 0, %5 ], [ %., %9 ], [ 0, %1 ]
  ret i32 %.0
}